target datalayout = "e-m:e-p270:32:32-p271:32:32-p272:64:64-i64:64-i128:128-f80:128-n8:16:32:64-S128"
target triple = "x86_64-pc-linux-gnu"

%struct.prov_sm4_xts_ctx_st = type { %struct.prov_cipher_ctx_st, %union.anon.0, %union.anon.0, i32, %struct.xts128_context, ptr, ptr }
%struct.prov_cipher_ctx_st = type { [16 x i8], [16 x i8], [16 x i8], ptr, %union.anon, i32, i64, i64, i64, i64, i32, i8, i32, ptr, i32, i64, i32, i64, i32, ptr, ptr, ptr }
%union.anon = type { ptr }
%union.anon.0 = type { double, [120 x i8] }
%struct.xts128_context = type { ptr, ptr, ptr, ptr }
%struct.prov_cipher_hw_st = type { ptr, ptr, ptr }

@.str = private unnamed_addr constant [62 x i8] c"../openssl/providers/implementations/ciphers/cipher_sm4_xts.c\00", align 1
@__func__.sm4_xts_init = private unnamed_addr constant [13 x i8] c"sm4_xts_init\00", align 1

; Function Attrs: nounwind uwtable
define internal i32 @sm4_xts_init(ptr noundef %0, ptr noundef %1, i64 noundef %2, ptr noundef %3, i64 noundef %4, ptr noundef %5, i32 noundef %6) #0 {
  %8 = alloca i32, align 4
  %9 = alloca ptr, align 8
  %10 = alloca ptr, align 8
  %11 = alloca i64, align 8
  %12 = alloca ptr, align 8
  %13 = alloca i64, align 8
  %14 = alloca ptr, align 8
  %15 = alloca i32, align 4
  %16 = alloca ptr, align 8
  %17 = alloca ptr, align 8
  %18 = alloca i32, align 4
  store ptr %0, ptr %9, align 8, !tbaa !3
  store ptr %1, ptr %10, align 8, !tbaa !7
  store i64 %2, ptr %11, align 8, !tbaa !9
  store ptr %3, ptr %12, align 8, !tbaa !7
  store i64 %4, ptr %13, align 8, !tbaa !9
  store ptr %5, ptr %14, align 8, !tbaa !11
  store i32 %6, ptr %15, align 4, !tbaa !33
  call void @llvm.lifetime.start.p0(i64 8, ptr %16) #4
  %19 = load ptr, ptr %9, align 8, !tbaa !3
  store ptr %19, ptr %16, align 8, !tbaa !15
  call void @llvm.lifetime.start.p0(i64 8, ptr %17) #4
  %20 = load ptr, ptr %16, align 8, !tbaa !15
  %21 = getelementptr inbounds nuw %struct.prov_sm4_xts_ctx_st, ptr %20, i32 0, i32 0
  store ptr %21, ptr %17, align 8, !tbaa !34
  %22 = call i32 @ossl_prov_is_running()
  %23 = icmp ne i32 %22, 0
  br i1 %23, label %25, label %24

24:                                               ; preds = %7
  store i32 0, ptr %8, align 4
  store i32 1, ptr %18, align 4
  br label %72

25:                                               ; preds = %7
  %26 = load i32, ptr %15, align 4, !tbaa !33
  %27 = load ptr, ptr %17, align 8, !tbaa !34
  %28 = getelementptr inbounds nuw %struct.prov_cipher_ctx_st, ptr %27, i32 0, i32 11
  %29 = trunc i32 %26 to i8
  %30 = load i8, ptr %28, align 4
  %31 = and i8 %29, 1
  %32 = shl i8 %31, 1
  %33 = and i8 %30, -3
  %34 = or i8 %33, %32
  store i8 %34, ptr %28, align 4
  %35 = load ptr, ptr %12, align 8, !tbaa !7
  %36 = icmp ne ptr %35, null
  br i1 %36, label %37, label %45

37:                                               ; preds = %25
  %38 = load ptr, ptr %9, align 8, !tbaa !3
  %39 = load ptr, ptr %12, align 8, !tbaa !7
  %40 = load i64, ptr %13, align 8, !tbaa !9
  %41 = call i32 @ossl_cipher_generic_initiv(ptr noundef %38, ptr noundef %39, i64 noundef %40)
  %42 = icmp ne i32 %41, 0
  br i1 %42, label %44, label %43

43:                                               ; preds = %37
  store i32 0, ptr %8, align 4
  store i32 1, ptr %18, align 4
  br label %72

44:                                               ; preds = %37
  br label %45

45:                                               ; preds = %44, %25
  %46 = load ptr, ptr %10, align 8, !tbaa !7
  %47 = icmp ne ptr %46, null
  br i1 %47, label %48, label %68

48:                                               ; preds = %45
  %49 = load i64, ptr %11, align 8, !tbaa !9
  %50 = load ptr, ptr %17, align 8, !tbaa !34
  %51 = getelementptr inbounds nuw %struct.prov_cipher_ctx_st, ptr %50, i32 0, i32 6
  %52 = load i64, ptr %51, align 8, !tbaa !36
  %53 = icmp ne i64 %49, %52
  br i1 %53, label %54, label %55

54:                                               ; preds = %48
  call void @ERR_new()
  call void @ERR_set_debug(ptr noundef @.str, i32 noundef 54, ptr noundef @__func__.sm4_xts_init)
  call void (i32, i32, ptr, ...) @ERR_set_error(i32 noundef 57, i32 noundef 105, ptr noundef null)
  store i32 0, ptr %8, align 4
  store i32 1, ptr %18, align 4
  br label %72

55:                                               ; preds = %48
  %56 = load ptr, ptr %17, align 8, !tbaa !34
  %57 = getelementptr inbounds nuw %struct.prov_cipher_ctx_st, ptr %56, i32 0, i32 19
  %58 = load ptr, ptr %57, align 8, !tbaa !37
  %59 = getelementptr inbounds nuw %struct.prov_cipher_hw_st, ptr %58, i32 0, i32 0
  %60 = load ptr, ptr %59, align 8, !tbaa !38
  %61 = load ptr, ptr %17, align 8, !tbaa !34
  %62 = load ptr, ptr %10, align 8, !tbaa !7
  %63 = load i64, ptr %11, align 8, !tbaa !9
  %64 = call i32 %60(ptr noundef %61, ptr noundef %62, i64 noundef %63)
  %65 = icmp ne i32 %64, 0
  br i1 %65, label %67, label %66

66:                                               ; preds = %55
  store i32 0, ptr %8, align 4
  store i32 1, ptr %18, align 4
  br label %72

67:                                               ; preds = %55
  br label %68

68:                                               ; preds = %67, %45
  %69 = load ptr, ptr %16, align 8, !tbaa !15
  %70 = load ptr, ptr %14, align 8, !tbaa !11
  %71 = call i32 @sm4_xts_set_ctx_params(ptr noundef %69, ptr noundef %70)
  store i32 %71, ptr %8, align 4
  store i32 1, ptr %18, align 4
  br label %72

72:                                               ; preds = %68, %66, %54, %43, %24
  call void @llvm.lifetime.end.p0(i64 8, ptr %17) #4
  call void @llvm.lifetime.end.p0(i64 8, ptr %16) #4
  %73 = load i32, ptr %8, align 4
  ret i32 %73
}