; Function Attrs: nounwind uwtable
define internal fastcc range(i32 0, 2) i32 @sm4_xts_init(ptr noundef %0, ptr noundef %1, i64 noundef %2, ptr noundef %3, i64 noundef %4, ptr noundef %5, i32 noundef range(i32 0, 2) %6) unnamed_addr #0 {
  %8 = tail call i32 @ossl_prov_is_running() #4
  %.not = icmp eq i32 %8, 0
  br i1 %.not, label %30, label %9

9:                                                ; preds = %7
  %10 = getelementptr inbounds nuw i8, ptr %0, i64 108
  %11 = trunc nuw nsw i32 %6 to i8
  %12 = load i8, ptr %10, align 4
  %13 = shl nuw nsw i8 %11, 1
  %14 = and i8 %12, -3
  %15 = or disjoint i8 %14, %13
  store i8 %15, ptr %10, align 4
  %.not20 = icmp eq ptr %3, null
  br i1 %.not20, label %18, label %16

16:                                               ; preds = %9
  %17 = tail call i32 @ossl_cipher_generic_initiv(ptr noundef nonnull %0, ptr noundef nonnull %3, i64 noundef %4) #4
  %.not21 = icmp eq i32 %17, 0
  br i1 %.not21, label %30, label %18

18:                                               ; preds = %16, %9
  %.not22 = icmp eq ptr %1, null
  br i1 %.not22, label %28, label %19

19:                                               ; preds = %18
  %20 = getelementptr inbounds nuw i8, ptr %0, i64 72
  %21 = load i64, ptr %20, align 8, !tbaa !27
  %.not23 = icmp eq i64 %2, %21
  br i1 %.not23, label %23, label %22

22:                                               ; preds = %19
  tail call void @ERR_new() #4
  tail call void @ERR_set_debug(ptr noundef nonnull @.str, i32 noundef 54, ptr noundef nonnull @__func__.sm4_xts_init) #4
  tail call void (i32, i32, ptr, ...) @ERR_set_error(i32 noundef 57, i32 noundef 105, ptr noundef null) #4
  br label %30

23:                                               ; preds = %19
  %24 = getelementptr inbounds nuw i8, ptr %0, i64 168
  %25 = load ptr, ptr %24, align 8, !tbaa !28
  %26 = load ptr, ptr %25, align 8, !tbaa !29
  %27 = tail call i32 %26(ptr noundef nonnull %0, ptr noundef nonnull %1, i64 noundef %2) #4
  %.not24 = icmp eq i32 %27, 0
  br i1 %.not24, label %30, label %28

28:                                               ; preds = %23, %18
  %29 = tail call i32 @sm4_xts_set_ctx_params(ptr noundef nonnull %0, ptr noundef %5)
  br label %30

30:                                               ; preds = %23, %16, %7, %28, %22
  %.0 = phi i32 [ 0, %22 ], [ %29, %28 ], [ 0, %7 ], [ 0, %16 ], [ 0, %23 ]
  ret i32 %.0
}